; Function Attrs: nounwind uwtable
define hidden void @jNewCMap(ptr noundef %0) local_unnamed_addr #0 {
  %2 = getelementptr inbounds i8, ptr %0, i64 544
  %3 = load ptr, ptr %2, align 8
  %4 = getelementptr inbounds i8, ptr %0, i64 36
  %5 = load i32, ptr %4, align 4
  %.not = icmp eq i32 %5, 207
  br i1 %.not, label %14, label %6

6:                                                ; preds = %1
  %7 = load ptr, ptr %0, align 8
  %8 = getelementptr inbounds i8, ptr %7, i64 40
  store i32 20, ptr %8, align 8
  %9 = load i32, ptr %4, align 4
  %10 = load ptr, ptr %0, align 8
  %11 = getelementptr inbounds i8, ptr %10, i64 44
  store i32 %9, ptr %11, align 4
  %12 = load ptr, ptr %0, align 8
  %13 = load ptr, ptr %12, align 8
  tail call void %13(ptr noundef nonnull %0) #4
  br label %14

14:                                               ; preds = %6, %1
  %15 = getelementptr inbounds i8, ptr %0, i64 108
  %16 = load i32, ptr %15, align 4
  %.not18 = icmp eq i32 %16, 0
  br i1 %.not18, label %30, label %17

17:                                               ; preds = %14
  %18 = getelementptr inbounds i8, ptr %0, i64 128
  %19 = load i32, ptr %18, align 8
  %.not19 = icmp eq i32 %19, 0
  br i1 %.not19, label %30, label %20

20:                                               ; preds = %17
  %21 = getelementptr inbounds i8, ptr %0, i64 160
  %22 = load ptr, ptr %21, align 8
  %.not20 = icmp eq ptr %22, null
  br i1 %.not20, label %30, label %23

23:                                               ; preds = %20
  %24 = getelementptr inbounds i8, ptr %3, i64 40
  %25 = load ptr, ptr %24, align 8
  %26 = getelementptr inbounds i8, ptr %0, i64 624
  store ptr %25, ptr %26, align 8
  %27 = getelementptr inbounds i8, ptr %25, i64 24
  %28 = load ptr, ptr %27, align 8
  tail call void %28(ptr noundef nonnull %0) #4
  %29 = getelementptr inbounds i8, ptr %3, i64 16
  store i32 0, ptr %29, align 8
  br label %35

30:                                               ; preds = %20, %17, %14
  %31 = load ptr, ptr %0, align 8
  %32 = getelementptr inbounds i8, ptr %31, i64 40
  store i32 46, ptr %32, align 8
  %33 = load ptr, ptr %0, align 8
  %34 = load ptr, ptr %33, align 8
  tail call void %34(ptr noundef nonnull %0) #4
  br label %35

35:                                               ; preds = %30, %23
  ret void
}